; Function Attrs: mustprogress nounwind uwtable
define void @_ZN7logging8VlogInfoD2Ev(ptr noundef nonnull readonly align 8 captures(none) dereferenceable(32) %0) unnamed_addr #5 align 2 personality ptr @__gxx_personality_v0 {
  %2 = load ptr, ptr %0, align 8, !tbaa !42
  %3 = getelementptr inbounds nuw i8, ptr %0, i64 8
  %4 = load ptr, ptr %3, align 8, !tbaa !38
  %.not4.i.i.i.i = icmp eq ptr %2, %4
  br i1 %.not4.i.i.i.i, label %_ZSt8_DestroyIPN7logging8VlogInfo14VmodulePatternES2_EvT_S4_RSaIT0_E.exit.i, label %.lr.ph.i.i.i.i

.lr.ph.i.i.i.i:                                   ; preds = %1, %_ZSt8_DestroyIN7logging8VlogInfo14VmodulePatternEEvPT_.exit.i.i.i.i
  %.05.i.i.i.i = phi ptr [ %11, %_ZSt8_DestroyIN7logging8VlogInfo14VmodulePatternEEvPT_.exit.i.i.i.i ], [ %2, %1 ]
  %5 = load ptr, ptr %.05.i.i.i.i, align 8, !tbaa !9
  %6 = getelementptr inbounds nuw i8, ptr %.05.i.i.i.i, i64 16
  %7 = icmp eq ptr %5, %6
  br i1 %7, label %_ZNKSt7__cxx1112basic_stringIcSt11char_traitsIcESaIcEE11_M_is_localEv.exit.thread.i.i.i.i.i.i.i.i, label %_ZNKSt7__cxx1112basic_stringIcSt11char_traitsIcESaIcEE11_M_is_localEv.exit.i.i.i.i.i.i.i.i

_ZNKSt7__cxx1112basic_stringIcSt11char_traitsIcESaIcEE11_M_is_localEv.exit.thread.i.i.i.i.i.i.i.i: ; preds = %.lr.ph.i.i.i.i
  %8 = getelementptr inbounds nuw i8, ptr %.05.i.i.i.i, i64 8
  %9 = load i64, ptr %8, align 8, !tbaa !12
  %10 = icmp ult i64 %9, 16
  tail call void @llvm.assume(i1 %10)
  br label %_ZSt8_DestroyIN7logging8VlogInfo14VmodulePatternEEvPT_.exit.i.i.i.i

_ZNKSt7__cxx1112basic_stringIcSt11char_traitsIcESaIcEE11_M_is_localEv.exit.i.i.i.i.i.i.i.i: ; preds = %.lr.ph.i.i.i.i
  tail call void @_ZdlPv(ptr noundef %5) #21
  br label %_ZSt8_DestroyIN7logging8VlogInfo14VmodulePatternEEvPT_.exit.i.i.i.i

_ZSt8_DestroyIN7logging8VlogInfo14VmodulePatternEEvPT_.exit.i.i.i.i: ; preds = %_ZNKSt7__cxx1112basic_stringIcSt11char_traitsIcESaIcEE11_M_is_localEv.exit.i.i.i.i.i.i.i.i, %_ZNKSt7__cxx1112basic_stringIcSt11char_traitsIcESaIcEE11_M_is_localEv.exit.thread.i.i.i.i.i.i.i.i
  %11 = getelementptr inbounds nuw i8, ptr %.05.i.i.i.i, i64 40
  %.not.i.i.i.i = icmp eq ptr %11, %4
  br i1 %.not.i.i.i.i, label %_ZSt8_DestroyIPN7logging8VlogInfo14VmodulePatternES2_EvT_S4_RSaIT0_E.exitthread-pre-split.i, label %.lr.ph.i.i.i.i, !llvm.loop !43

_ZSt8_DestroyIPN7logging8VlogInfo14VmodulePatternES2_EvT_S4_RSaIT0_E.exitthread-pre-split.i: ; preds = %_ZSt8_DestroyIN7logging8VlogInfo14VmodulePatternEEvPT_.exit.i.i.i.i
  %.pr.i = load ptr, ptr %0, align 8, !tbaa !42
  br label %_ZSt8_DestroyIPN7logging8VlogInfo14VmodulePatternES2_EvT_S4_RSaIT0_E.exit.i

_ZSt8_DestroyIPN7logging8VlogInfo14VmodulePatternES2_EvT_S4_RSaIT0_E.exit.i: ; preds = %_ZSt8_DestroyIPN7logging8VlogInfo14VmodulePatternES2_EvT_S4_RSaIT0_E.exitthread-pre-split.i, %1
  %12 = phi ptr [ %.pr.i, %_ZSt8_DestroyIPN7logging8VlogInfo14VmodulePatternES2_EvT_S4_RSaIT0_E.exitthread-pre-split.i ], [ %2, %1 ]
  %.not.i.i.i = icmp eq ptr %12, null
  br i1 %.not.i.i.i, label %_ZNSt6vectorIN7logging8VlogInfo14VmodulePatternESaIS2_EED2Ev.exit, label %13

13:                                               ; preds = %_ZSt8_DestroyIPN7logging8VlogInfo14VmodulePatternES2_EvT_S4_RSaIT0_E.exit.i
  tail call void @_ZdlPv(ptr noundef nonnull %12) #21
  br label %_ZNSt6vectorIN7logging8VlogInfo14VmodulePatternESaIS2_EED2Ev.exit

_ZNSt6vectorIN7logging8VlogInfo14VmodulePatternESaIS2_EED2Ev.exit: ; preds = %_ZSt8_DestroyIPN7logging8VlogInfo14VmodulePatternES2_EvT_S4_RSaIT0_E.exit.i, %13
  ret void
}